; Function Attrs: mustprogress nofree norecurse nosync nounwind willreturn memory(none) uwtable
define internal noundef double @trc_iec61966_2_1_inv(double noundef %0) #0 {
  %2 = fcmp nsz olt double %0, 0.000000e+00
  br i1 %2, label %11, label %3

3:                                                ; preds = %1
  %4 = fcmp nsz olt double %0, 0x3FA4B5DAA07D970D
  br i1 %4, label %5, label %7

5:                                                ; preds = %3
  %6 = fdiv nsz double %0, 1.292000e+01
  br label %11

7:                                                ; preds = %3
  %8 = fadd nsz double %0, 0x3FAC28F5C28F5C20
  %9 = fdiv nsz double %8, 1.055000e+00
  %10 = tail call nsz double @llvm.pow.f64(double %9, double 2.400000e+00)
  br label %11

11:                                               ; preds = %5, %7, %1
  %12 = phi nsz double [ 0.000000e+00, %1 ], [ %6, %5 ], [ %10, %7 ]
  ret double %12
}